
8_queens.o:     file format elf64-littleriscv


Disassembly of section .text:

00000000000100e8 <isSafe>:
   100e8:	fc010113          	addi	sp,sp,-64
   100ec:	02113c23          	sd	ra,56(sp)
   100f0:	02813823          	sd	s0,48(sp)
   100f4:	04010413          	addi	s0,sp,64
   100f8:	fca43423          	sd	a0,-56(s0)
   100fc:	00058793          	mv	a5,a1
   10100:	00060713          	mv	a4,a2
   10104:	fcf42223          	sw	a5,-60(s0)
   10108:	00070793          	mv	a5,a4
   1010c:	fcf42023          	sw	a5,-64(s0)
   10110:	fe042623          	sw	zero,-20(s0)
   10114:	0500006f          	j	10164 <isSafe+0x7c>
   10118:	fc442703          	lw	a4,-60(s0)
   1011c:	00070793          	mv	a5,a4
   10120:	00279793          	slli	a5,a5,0x2
   10124:	00e787b3          	add	a5,a5,a4
   10128:	00479793          	slli	a5,a5,0x4
   1012c:	00078713          	mv	a4,a5
   10130:	fc843783          	ld	a5,-56(s0)
   10134:	00e78733          	add	a4,a5,a4
   10138:	fec42783          	lw	a5,-20(s0)
   1013c:	00279793          	slli	a5,a5,0x2
   10140:	00f707b3          	add	a5,a4,a5
   10144:	0007a703          	lw	a4,0(a5)
   10148:	00100793          	li	a5,1
   1014c:	00f71663          	bne	a4,a5,10158 <isSafe+0x70>
   10150:	00000793          	li	a5,0
   10154:	1380006f          	j	1028c <isSafe+0x1a4>
   10158:	fec42783          	lw	a5,-20(s0)
   1015c:	0017879b          	addiw	a5,a5,1
   10160:	fef42623          	sw	a5,-20(s0)
   10164:	fec42783          	lw	a5,-20(s0)
   10168:	00078713          	mv	a4,a5
   1016c:	fc042783          	lw	a5,-64(s0)
   10170:	0007071b          	sext.w	a4,a4
   10174:	0007879b          	sext.w	a5,a5
   10178:	faf740e3          	blt	a4,a5,10118 <isSafe+0x30>
   1017c:	fc442783          	lw	a5,-60(s0)
   10180:	fef42423          	sw	a5,-24(s0)
   10184:	fc042783          	lw	a5,-64(s0)
   10188:	fef42223          	sw	a5,-28(s0)
   1018c:	05c0006f          	j	101e8 <isSafe+0x100>
   10190:	fe842703          	lw	a4,-24(s0)
   10194:	00070793          	mv	a5,a4
   10198:	00279793          	slli	a5,a5,0x2
   1019c:	00e787b3          	add	a5,a5,a4
   101a0:	00479793          	slli	a5,a5,0x4
   101a4:	00078713          	mv	a4,a5
   101a8:	fc843783          	ld	a5,-56(s0)
   101ac:	00e78733          	add	a4,a5,a4
   101b0:	fe442783          	lw	a5,-28(s0)
   101b4:	00279793          	slli	a5,a5,0x2
   101b8:	00f707b3          	add	a5,a4,a5
   101bc:	0007a703          	lw	a4,0(a5)
   101c0:	00100793          	li	a5,1
   101c4:	00f71663          	bne	a4,a5,101d0 <isSafe+0xe8>
   101c8:	00000793          	li	a5,0
   101cc:	0c00006f          	j	1028c <isSafe+0x1a4>
   101d0:	fe842783          	lw	a5,-24(s0)
   101d4:	fff7879b          	addiw	a5,a5,-1
   101d8:	fef42423          	sw	a5,-24(s0)
   101dc:	fe442783          	lw	a5,-28(s0)
   101e0:	fff7879b          	addiw	a5,a5,-1
   101e4:	fef42223          	sw	a5,-28(s0)
   101e8:	fe842783          	lw	a5,-24(s0)
   101ec:	0007879b          	sext.w	a5,a5
   101f0:	0007c863          	bltz	a5,10200 <isSafe+0x118>
   101f4:	fe442783          	lw	a5,-28(s0)
   101f8:	0007879b          	sext.w	a5,a5
   101fc:	f807dae3          	bgez	a5,10190 <isSafe+0xa8>
   10200:	fc442783          	lw	a5,-60(s0)
   10204:	fef42023          	sw	a5,-32(s0)
   10208:	fc042783          	lw	a5,-64(s0)
   1020c:	fcf42e23          	sw	a5,-36(s0)
   10210:	05c0006f          	j	1026c <isSafe+0x184>
   10214:	fe042703          	lw	a4,-32(s0)
   10218:	00070793          	mv	a5,a4
   1021c:	00279793          	slli	a5,a5,0x2
   10220:	00e787b3          	add	a5,a5,a4
   10224:	00479793          	slli	a5,a5,0x4
   10228:	00078713          	mv	a4,a5
   1022c:	fc843783          	ld	a5,-56(s0)
   10230:	00e78733          	add	a4,a5,a4
   10234:	fdc42783          	lw	a5,-36(s0)
   10238:	00279793          	slli	a5,a5,0x2
   1023c:	00f707b3          	add	a5,a4,a5
   10240:	0007a703          	lw	a4,0(a5)
   10244:	00100793          	li	a5,1
   10248:	00f71663          	bne	a4,a5,10254 <isSafe+0x16c>
   1024c:	00000793          	li	a5,0
   10250:	03c0006f          	j	1028c <isSafe+0x1a4>
   10254:	fe042783          	lw	a5,-32(s0)
   10258:	0017879b          	addiw	a5,a5,1
   1025c:	fef42023          	sw	a5,-32(s0)
   10260:	fdc42783          	lw	a5,-36(s0)
   10264:	fff7879b          	addiw	a5,a5,-1
   10268:	fcf42e23          	sw	a5,-36(s0)
   1026c:	fe042783          	lw	a5,-32(s0)
   10270:	0007871b          	sext.w	a4,a5
   10274:	01300793          	li	a5,19
   10278:	00e7c863          	blt	a5,a4,10288 <isSafe+0x1a0>
   1027c:	fdc42783          	lw	a5,-36(s0)
   10280:	0007879b          	sext.w	a5,a5
   10284:	f807d8e3          	bgez	a5,10214 <isSafe+0x12c>
   10288:	00100793          	li	a5,1
   1028c:	00078513          	mv	a0,a5
   10290:	03813083          	ld	ra,56(sp)
   10294:	03013403          	ld	s0,48(sp)
   10298:	04010113          	addi	sp,sp,64
   1029c:	00008067          	ret

00000000000102a0 <solveNQueens>:
   102a0:	fd010113          	addi	sp,sp,-48
   102a4:	02113423          	sd	ra,40(sp)
   102a8:	02813023          	sd	s0,32(sp)
   102ac:	03010413          	addi	s0,sp,48
   102b0:	fca43c23          	sd	a0,-40(s0)
   102b4:	00058793          	mv	a5,a1
   102b8:	fcf42a23          	sw	a5,-44(s0)
   102bc:	fd442783          	lw	a5,-44(s0)
   102c0:	0007871b          	sext.w	a4,a5
   102c4:	01400793          	li	a5,20
   102c8:	00f71663          	bne	a4,a5,102d4 <solveNQueens+0x34>
   102cc:	00100793          	li	a5,1
   102d0:	0d80006f          	j	103a8 <solveNQueens+0x108>
   102d4:	fe042623          	sw	zero,-20(s0)
   102d8:	0bc0006f          	j	10394 <solveNQueens+0xf4>
   102dc:	fd442703          	lw	a4,-44(s0)
   102e0:	fec42783          	lw	a5,-20(s0)
   102e4:	00070613          	mv	a2,a4
   102e8:	00078593          	mv	a1,a5
   102ec:	fd843503          	ld	a0,-40(s0)
   102f0:	df9ff0ef          	jal	100e8 <isSafe>
   102f4:	00050793          	mv	a5,a0
   102f8:	08078863          	beqz	a5,10388 <solveNQueens+0xe8>
   102fc:	fec42703          	lw	a4,-20(s0)
   10300:	00070793          	mv	a5,a4
   10304:	00279793          	slli	a5,a5,0x2
   10308:	00e787b3          	add	a5,a5,a4
   1030c:	00479793          	slli	a5,a5,0x4
   10310:	00078713          	mv	a4,a5
   10314:	fd843783          	ld	a5,-40(s0)
   10318:	00e78733          	add	a4,a5,a4
   1031c:	fd442783          	lw	a5,-44(s0)
   10320:	00279793          	slli	a5,a5,0x2
   10324:	00f707b3          	add	a5,a4,a5
   10328:	00100713          	li	a4,1
   1032c:	00e7a023          	sw	a4,0(a5)
   10330:	fd442783          	lw	a5,-44(s0)
   10334:	0017879b          	addiw	a5,a5,1
   10338:	0007879b          	sext.w	a5,a5
   1033c:	00078593          	mv	a1,a5
   10340:	fd843503          	ld	a0,-40(s0)
   10344:	f5dff0ef          	jal	102a0 <solveNQueens>
   10348:	00050793          	mv	a5,a0
   1034c:	00078663          	beqz	a5,10358 <solveNQueens+0xb8>
   10350:	00100793          	li	a5,1
   10354:	0540006f          	j	103a8 <solveNQueens+0x108>
   10358:	fec42703          	lw	a4,-20(s0)
   1035c:	00070793          	mv	a5,a4
   10360:	00279793          	slli	a5,a5,0x2
   10364:	00e787b3          	add	a5,a5,a4
   10368:	00479793          	slli	a5,a5,0x4
   1036c:	00078713          	mv	a4,a5
   10370:	fd843783          	ld	a5,-40(s0)
   10374:	00e78733          	add	a4,a5,a4
   10378:	fd442783          	lw	a5,-44(s0)
   1037c:	00279793          	slli	a5,a5,0x2
   10380:	00f707b3          	add	a5,a4,a5
   10384:	0007a023          	sw	zero,0(a5)
   10388:	fec42783          	lw	a5,-20(s0)
   1038c:	0017879b          	addiw	a5,a5,1
   10390:	fef42623          	sw	a5,-20(s0)
   10394:	fec42783          	lw	a5,-20(s0)
   10398:	0007871b          	sext.w	a4,a5
   1039c:	01300793          	li	a5,19
   103a0:	f2e7dee3          	bge	a5,a4,102dc <solveNQueens+0x3c>
   103a4:	00000793          	li	a5,0
   103a8:	00078513          	mv	a0,a5
   103ac:	02813083          	ld	ra,40(sp)
   103b0:	02013403          	ld	s0,32(sp)
   103b4:	03010113          	addi	sp,sp,48
   103b8:	00008067          	ret

00000000000103bc <main>:
   103bc:	9a010113          	addi	sp,sp,-1632
   103c0:	64113c23          	sd	ra,1624(sp)
   103c4:	64813823          	sd	s0,1616(sp)
   103c8:	66010413          	addi	s0,sp,1632
   103cc:	fe042623          	sw	zero,-20(s0)
   103d0:	0600006f          	j	10430 <main+0x74>
   103d4:	fe042423          	sw	zero,-24(s0)
   103d8:	03c0006f          	j	10414 <main+0x58>
   103dc:	fe842683          	lw	a3,-24(s0)
   103e0:	fec42703          	lw	a4,-20(s0)
   103e4:	00070793          	mv	a5,a4
   103e8:	00279793          	slli	a5,a5,0x2
   103ec:	00e787b3          	add	a5,a5,a4
   103f0:	00279793          	slli	a5,a5,0x2
   103f4:	00d78733          	add	a4,a5,a3
   103f8:	9a840793          	addi	a5,s0,-1624
   103fc:	00271713          	slli	a4,a4,0x2
   10400:	00f707b3          	add	a5,a4,a5
   10404:	0007a023          	sw	zero,0(a5)
   10408:	fe842783          	lw	a5,-24(s0)
   1040c:	0017879b          	addiw	a5,a5,1
   10410:	fef42423          	sw	a5,-24(s0)
   10414:	fe842783          	lw	a5,-24(s0)
   10418:	0007871b          	sext.w	a4,a5
   1041c:	01300793          	li	a5,19
   10420:	fae7dee3          	bge	a5,a4,103dc <main+0x20>
   10424:	fec42783          	lw	a5,-20(s0)
   10428:	0017879b          	addiw	a5,a5,1
   1042c:	fef42623          	sw	a5,-20(s0)
   10430:	fec42783          	lw	a5,-20(s0)
   10434:	0007871b          	sext.w	a4,a5
   10438:	01300793          	li	a5,19
   1043c:	f8e7dce3          	bge	a5,a4,103d4 <main+0x18>
   10440:	9a840793          	addi	a5,s0,-1624
   10444:	00000593          	li	a1,0
   10448:	00078513          	mv	a0,a5
   1044c:	e55ff0ef          	jal	102a0 <solveNQueens>
   10450:	00050793          	mv	a5,a0
   10454:	00078513          	mv	a0,a5
   10458:	65813083          	ld	ra,1624(sp)
   1045c:	65013403          	ld	s0,1616(sp)
   10460:	66010113          	addi	sp,sp,1632
   10464:	00008067          	ret
