
easy_arithmetic.o:     file format elf64-littleriscv


Disassembly of section .text:

00000000000100e8 <main>:
   100e8:	fe010113          	addi	sp,sp,-32
   100ec:	00113c23          	sd	ra,24(sp)
   100f0:	00813823          	sd	s0,16(sp)
   100f4:	02010413          	addi	s0,sp,32
   100f8:	00500793          	li	a5,5
   100fc:	fef42623          	sw	a5,-20(s0)
   10100:	00200793          	li	a5,2
   10104:	fef42423          	sw	a5,-24(s0)
   10108:	00300793          	li	a5,3
   1010c:	fef42223          	sw	a5,-28(s0)
   10110:	fec42783          	lw	a5,-20(s0)
   10114:	00078713          	mv	a4,a5
   10118:	fe842783          	lw	a5,-24(s0)
   1011c:	00f707bb          	addw	a5,a4,a5
   10120:	fef42223          	sw	a5,-28(s0)
   10124:	fe442783          	lw	a5,-28(s0)
   10128:	fe842703          	lw	a4,-24(s0)
   1012c:	00f717bb          	sllw	a5,a4,a5
   10130:	fef42623          	sw	a5,-20(s0)
   10134:	fe442783          	lw	a5,-28(s0)
   10138:	0077e793          	ori	a5,a5,7
   1013c:	fef42423          	sw	a5,-24(s0)
   10140:	fe842783          	lw	a5,-24(s0)
   10144:	0197f793          	andi	a5,a5,25
   10148:	fef42223          	sw	a5,-28(s0)
   1014c:	fe442783          	lw	a5,-28(s0)
   10150:	4027d79b          	sraiw	a5,a5,0x2
   10154:	fef42623          	sw	a5,-20(s0)
   10158:	fe442783          	lw	a5,-28(s0)
   1015c:	00078713          	mv	a4,a5
   10160:	fec42783          	lw	a5,-20(s0)
   10164:	00f747b3          	xor	a5,a4,a5
   10168:	fef42423          	sw	a5,-24(s0)
   1016c:	00000793          	li	a5,0
   10170:	00078513          	mv	a0,a5
   10174:	01813083          	ld	ra,24(sp)
   10178:	01013403          	ld	s0,16(sp)
   1017c:	02010113          	addi	sp,sp,32
   10180:	00008067          	ret
